; Function Attrs: mustprogress nounwind uwtable
define hidden noundef zeroext i1 @_ZNK12XUncommitter4waitEm(ptr noundef nonnull align 8 dereferenceable(1017) %0, i64 noundef %1) local_unnamed_addr #1 align 2 {
  %3 = getelementptr inbounds i8, ptr %0, i64 928
  %4 = tail call i32 @pthread_mutex_lock(ptr noundef nonnull %3) #9
  %5 = load i8, ptr @ZUncommit, align 1
  %6 = trunc i8 %5 to i1
  br i1 %6, label %.critedge, label %.lr.ph

.lr.ph:                                           ; preds = %2
  %7 = getelementptr inbounds i8, ptr %0, i64 1016
  br label %8

8:                                                ; preds = %.lr.ph, %11
  %9 = load i8, ptr %7, align 8
  %10 = trunc i8 %9 to i1
  br i1 %10, label %.critedge, label %11

11:                                               ; preds = %8
  %12 = tail call noundef i32 @_ZN15PlatformMonitor4waitEm(ptr noundef nonnull align 8 dereferenceable(88) %3, i64 noundef 0) #9
  %13 = load i8, ptr @ZUncommit, align 1
  %14 = trunc i8 %13 to i1
  br i1 %14, label %.critedge, label %8, !llvm.loop !6

.critedge:                                        ; preds = %8, %11, %2
  %15 = getelementptr inbounds i8, ptr %0, i64 1016
  %16 = load i8, ptr %15, align 8
  %17 = trunc i8 %16 to i1
  %18 = icmp eq i64 %1, 0
  %or.cond.not = or i1 %18, %17
  br i1 %or.cond.not, label %_ZN7XLockerI14XConditionLockED2Ev.exit, label %19

19:                                               ; preds = %.critedge
  %20 = load volatile ptr, ptr getelementptr inbounds (i8, ptr @_ZN16LogTagSetMappingILN6LogTag4typeE49ELS1_52ELS1_0ELS1_0ELS1_0ELS1_0EE7_tagsetE, i64 56), align 8
  %.not = icmp eq ptr %20, null
  br i1 %.not, label %22, label %21

21:                                               ; preds = %19
  tail call void (ptr, ...) @_ZN7LogImplILN6LogTag4typeE49ELS1_52ELS1_0ELS1_0ELS1_0ELS1_0EE5writeILN8LogLevel4typeE2EEEvPKcz(ptr noundef nonnull @.str.7, i64 noundef %1)
  br label %22

22:                                               ; preds = %19, %21
  %23 = mul i64 %1, 1000
  %24 = tail call noundef i32 @_ZN15PlatformMonitor4waitEm(ptr noundef nonnull align 8 dereferenceable(88) %3, i64 noundef %23) #9
  %.pre = load i8, ptr %15, align 8
  %.pre6 = trunc i8 %.pre to i1
  br label %_ZN7XLockerI14XConditionLockED2Ev.exit

_ZN7XLockerI14XConditionLockED2Ev.exit:           ; preds = %22, %.critedge
  %.pre-phi = phi i1 [ %.pre6, %22 ], [ %17, %.critedge ]
  %25 = xor i1 %.pre-phi, true
  %26 = tail call i32 @pthread_mutex_unlock(ptr noundef nonnull %3) #9
  ret i1 %25
}